Certificate:
    Data:
        Version: 3 (0x2)
        Serial Number: 1 (0x1)
        Signature Algorithm: sha1WithRSAEncryption
        Issuer: C=CN, ST=Guangdong, O=UC, OU=Program, CN=ldap-server/emailAddress=ggd543@gmail.com
        Validity
            Not Before: Aug  6 07:58:53 2013 GMT
            Not After : Aug  5 07:58:53 2016 GMT
        Subject: C=CN, ST=Guangdong, O=UC, OU=Program, CN=ldap-server/emailAddress=ggd543@gmail.com
        Subject Public Key Info:
            Public Key Algorithm: rsaEncryption
                Public-Key: (2048 bit)
                Modulus:
                    00:c6:3d:e0:dd:75:8c:76:b9:5e:cb:bd:2f:32:31:
                    94:bf:58:78:71:fc:a1:bd:df:5b:8a:f8:de:ee:7d:
                    9f:f3:d5:ce:d2:7b:d8:0c:b7:46:07:8d:30:74:4c:
                    93:9e:a4:87:22:f7:7c:cc:1b:26:b5:27:8e:44:24:
                    0b:71:40:79:32:25:c3:0d:30:e8:cd:36:88:b7:f9:
                    29:dd:66:45:a0:f5:e9:cd:9b:89:ad:32:a2:60:49:
                    76:38:3c:0c:b2:30:4e:13:8c:6c:d5:c6:12:70:48:
                    1f:79:7d:a5:25:f2:d5:fa:c0:75:19:0b:88:e0:b6:
                    dc:19:87:d4:61:43:a9:46:9b:7a:d7:96:9e:41:aa:
                    4b:ea:dc:b0:ca:b1:9f:89:d4:6f:e4:75:af:ba:d5:
                    9c:78:4b:fd:ae:fc:6e:12:e2:51:64:e0:2c:7a:b5:
                    24:d5:eb:e4:a3:44:a5:45:75:d1:b7:80:6b:55:ce:
                    99:0a:c8:3d:c0:3f:45:2a:58:08:65:89:47:82:ac:
                    35:39:b5:43:5d:32:9d:5f:51:09:75:81:4a:ce:db:
                    d8:e9:47:9d:88:52:45:75:e2:45:71:58:b3:fe:81:
                    05:cf:04:3a:53:76:cb:90:88:4f:26:62:30:74:90:
                    92:1d:01:44:b8:a0:c1:74:7b:d8:09:60:28:db:3a:
                    c8:bf
                Exponent: 65537 (0x10001)
        X509v3 extensions:
            X509v3 Subject Key Identifier: 
                6B:17:B3:B7:CF:AB:5E:E3:8A:EE:A3:BA:74:B8:DC:96:A1:C6:5A:46
            X509v3 Authority Key Identifier: 
                keyid:6B:17:B3:B7:CF:AB:5E:E3:8A:EE:A3:BA:74:B8:DC:96:A1:C6:5A:46

            X509v3 Basic Constraints: 
                CA:TRUE
    Signature Algorithm: sha1WithRSAEncryption
        75:7b:06:68:83:e5:49:1c:6e:90:55:5b:d7:0b:c0:df:3f:17:
        55:22:ce:b3:bb:60:6b:74:46:bf:d5:ff:3a:06:40:5c:fa:35:
        9d:61:84:50:94:23:fc:ca:16:5c:d8:ff:d5:31:7f:35:a9:c4:
        8a:ba:28:46:4b:41:8b:09:16:b5:c5:86:0c:74:88:4b:35:2e:
        b3:05:28:7a:3d:14:5b:08:89:90:6e:e0:fa:1a:f5:84:19:6b:
        ce:f9:cb:e8:af:1b:47:62:a0:1b:ce:ea:f6:02:94:92:01:62:
        0b:54:ae:b5:ed:fe:e5:53:f8:16:a7:ee:8d:ad:76:46:ce:f5:
        33:28:97:3e:63:45:2e:7e:42:b9:93:10:0b:8b:e0:44:a3:80:
        c2:a4:e4:03:31:c0:ca:e0:96:26:16:68:e8:c9:75:4b:44:b2:
        bd:b8:b0:11:88:95:88:94:44:bc:36:fd:a1:9f:52:16:7a:e4:
        8b:9c:9c:da:6c:98:f0:25:d5:72:5a:85:31:2e:86:a9:6a:1d:
        5e:17:7f:82:c8:75:9d:d6:6e:1f:6c:99:db:33:43:ee:df:05:
        03:9f:1a:41:dd:c3:36:61:4f:77:3d:14:38:48:52:81:b2:bd:
        34:22:db:d8:03:10:2a:23:7d:f1:5c:8a:f5:e1:27:1f:45:69:
        aa:f2:65:1a
-----BEGIN CERTIFICATE-----
MIIDuTCCAqGgAwIBAgIBATANBgkqhkiG9w0BAQUFADB3MQswCQYDVQQGEwJDTjES
MBAGA1UECAwJR3Vhbmdkb25nMQswCQYDVQQKDAJVQzEQMA4GA1UECwwHUHJvZ3Jh
bTEUMBIGA1UEAwwLbGRhcC1zZXJ2ZXIxHzAdBgkqhkiG9w0BCQEWEGdnZDU0M0Bn
bWFpbC5jb20wHhcNMTMwODA2MDc1ODUzWhcNMTYwODA1MDc1ODUzWjB3MQswCQYD
VQQGEwJDTjESMBAGA1UECAwJR3Vhbmdkb25nMQswCQYDVQQKDAJVQzEQMA4GA1UE
CwwHUHJvZ3JhbTEUMBIGA1UEAwwLbGRhcC1zZXJ2ZXIxHzAdBgkqhkiG9w0BCQEW
EGdnZDU0M0BnbWFpbC5jb20wggEiMA0GCSqGSIb3DQEBAQUAA4IBDwAwggEKAoIB
AQDGPeDddYx2uV7LvS8yMZS/WHhx/KG931uK+N7ufZ/z1c7Se9gMt0YHjTB0TJOe
pIci93zMGya1J45EJAtxQHkyJcMNMOjNNoi3+SndZkWg9enNm4mtMqJgSXY4PAyy
ME4TjGzVxhJwSB95faUl8tX6wHUZC4jgttwZh9RhQ6lGm3rXlp5Bqkvq3LDKsZ+J
1G/kda+61Zx4S/2u/G4S4lFk4Cx6tSTV6+SjRKVFddG3gGtVzpkKyD3AP0UqWAhl
iUeCrDU5tUNdMp1fUQl1gUrO29jpR52IUkV14kVxWLP+gQXPBDpTdsuQiE8mYjB0
kJIdAUS4oMF0e9gJYCjbOsi/AgMBAAGjUDBOMB0GA1UdDgQWBBRrF7O3z6te44ru
o7p0uNyWocZaRjAfBgNVHSMEGDAWgBRrF7O3z6te44ruo7p0uNyWocZaRjAMBgNV
HRMEBTADAQH/MA0GCSqGSIb3DQEBBQUAA4IBAQB1ewZog+VJHG6QVVvXC8DfPxdV
Is6zu2BrdEa/1f86BkBc+jWdYYRQlCP8yhZc2P/VMX81qcSKuihGS0GLCRa1xYYM
dIhLNS6zBSh6PRRbCImQbuD6GvWEGWvO+cvorxtHYqAbzur2ApSSAWILVK617f7l
U/gWp+6NrXZGzvUzKJc+Y0UufkK5kxALi+BEo4DCpOQDMcDK4JYmFmjoyXVLRLK9
uLARiJWIlES8Nv2hn1IWeuSLnJzabJjwJdVyWoUxLoapah1eF3+CyHWd1m4fbJnb
M0Pu3wUDnxpB3cM2YU93PRQ4SFKBsr00ItvYAxAqI33xXIr14ScfRWmq8mUa
-----END CERTIFICATE-----
